target datalayout = "e-m:e-p270:32:32-p271:32:32-p272:64:64-i64:64-i128:128-f80:128-n8:16:32:64-S128"
target triple = "x86_64-pc-linux-gnu"

%struct.oscore_context = type { ptr, ptr, ptr, ptr, ptr, i32, ptr, ptr, ptr, ptr, ptr, ptr, ptr, ptr }
%struct._GByteArray = type { ptr, i32 }

@.str.151 = private unnamed_addr constant [22 x i8] c"Sender ID is invalid.\00", align 1
@.str.152 = private unnamed_addr constant [28 x i8] c"Should be %u bytes or less.\00", align 1
@.str.153 = private unnamed_addr constant [25 x i8] c"Recipient ID is invalid.\00", align 1
@.str.154 = private unnamed_addr constant [23 x i8] c"ID Context is invalid.\00", align 1
@.str.155 = private unnamed_addr constant [26 x i8] c"Master Secret is invalid.\00", align 1
@.str.156 = private unnamed_addr constant [28 x i8] c"Master Secret is mandatory.\00", align 1
@.str.157 = private unnamed_addr constant [24 x i8] c"Master Salt is invalid.\00", align 1

; Function Attrs: null_pointer_is_valid sspstrong uwtable
define internal zeroext i1 @oscore_context_update_cb(ptr noundef %0, ptr noundef %1) #0 {
  %3 = alloca i1, align 1
  %4 = alloca ptr, align 8
  %5 = alloca ptr, align 8
  %6 = alloca ptr, align 8
  %7 = alloca ptr, align 8
  %8 = alloca i32, align 4
  store ptr %0, ptr %4, align 8
  store ptr %1, ptr %5, align 8
  call void @llvm.lifetime.start.p0(i64 8, ptr %6) #12
  %9 = load ptr, ptr %4, align 8
  store ptr %9, ptr %6, align 8
  call void @llvm.lifetime.start.p0(i64 8, ptr %7) #12
  %10 = call ptr @g_byte_array_new()
  store ptr %10, ptr %7, align 8
  %11 = load ptr, ptr %6, align 8
  %12 = getelementptr inbounds nuw %struct.oscore_context, ptr %11, i32 0, i32 3
  %13 = load ptr, ptr %12, align 8
  %14 = load ptr, ptr %7, align 8
  %15 = call zeroext i1 @hex_str_to_bytes(ptr noundef %13, ptr noundef %14, i1 noundef zeroext false)
  %16 = zext i1 %15 to i32
  %17 = icmp eq i32 %16, 0
  br i1 %17, label %18, label %23

18:                                               ; preds = %2
  %19 = call noalias ptr @g_strdup(ptr noundef @.str.151)
  %20 = load ptr, ptr %5, align 8
  store ptr %19, ptr %20, align 8
  %21 = load ptr, ptr %7, align 8
  %22 = call ptr @g_byte_array_free(ptr noundef %21, i32 noundef 1)
  store i1 false, ptr %3, align 1
  store i32 1, ptr %8, align 4
  br label %118

23:                                               ; preds = %2
  %24 = load ptr, ptr %7, align 8
  %25 = getelementptr inbounds nuw %struct._GByteArray, ptr %24, i32 0, i32 1
  %26 = load i32, ptr %25, align 8
  %27 = icmp ugt i32 %26, 7
  br i1 %27, label %28, label %33

28:                                               ; preds = %23
  %29 = call noalias ptr (ptr, ptr, ...) @wmem_strdup_printf(ptr noundef null, ptr noundef @.str.152, i32 noundef 7)
  %30 = load ptr, ptr %5, align 8
  store ptr %29, ptr %30, align 8
  %31 = load ptr, ptr %7, align 8
  %32 = call ptr @g_byte_array_free(ptr noundef %31, i32 noundef 1)
  store i1 false, ptr %3, align 1
  store i32 1, ptr %8, align 4
  br label %118

33:                                               ; preds = %23
  %34 = load ptr, ptr %6, align 8
  %35 = getelementptr inbounds nuw %struct.oscore_context, ptr %34, i32 0, i32 4
  %36 = load ptr, ptr %35, align 8
  %37 = load ptr, ptr %7, align 8
  %38 = call zeroext i1 @hex_str_to_bytes(ptr noundef %36, ptr noundef %37, i1 noundef zeroext false)
  %39 = zext i1 %38 to i32
  %40 = icmp eq i32 %39, 0
  br i1 %40, label %41, label %46

41:                                               ; preds = %33
  %42 = call noalias ptr @g_strdup(ptr noundef @.str.153)
  %43 = load ptr, ptr %5, align 8
  store ptr %42, ptr %43, align 8
  %44 = load ptr, ptr %7, align 8
  %45 = call ptr @g_byte_array_free(ptr noundef %44, i32 noundef 1)
  store i1 false, ptr %3, align 1
  store i32 1, ptr %8, align 4
  br label %118

46:                                               ; preds = %33
  %47 = load ptr, ptr %7, align 8
  %48 = getelementptr inbounds nuw %struct._GByteArray, ptr %47, i32 0, i32 1
  %49 = load i32, ptr %48, align 8
  %50 = icmp ugt i32 %49, 7
  br i1 %50, label %51, label %56

51:                                               ; preds = %46
  %52 = call noalias ptr (ptr, ptr, ...) @wmem_strdup_printf(ptr noundef null, ptr noundef @.str.152, i32 noundef 7)
  %53 = load ptr, ptr %5, align 8
  store ptr %52, ptr %53, align 8
  %54 = load ptr, ptr %7, align 8
  %55 = call ptr @g_byte_array_free(ptr noundef %54, i32 noundef 1)
  store i1 false, ptr %3, align 1
  store i32 1, ptr %8, align 4
  br label %118

56:                                               ; preds = %46
  %57 = load ptr, ptr %6, align 8
  %58 = getelementptr inbounds nuw %struct.oscore_context, ptr %57, i32 0, i32 2
  %59 = load ptr, ptr %58, align 8
  %60 = load ptr, ptr %7, align 8
  %61 = call zeroext i1 @hex_str_to_bytes(ptr noundef %59, ptr noundef %60, i1 noundef zeroext false)
  %62 = zext i1 %61 to i32
  %63 = icmp eq i32 %62, 0
  br i1 %63, label %64, label %69

64:                                               ; preds = %56
  %65 = call noalias ptr @g_strdup(ptr noundef @.str.154)
  %66 = load ptr, ptr %5, align 8
  store ptr %65, ptr %66, align 8
  %67 = load ptr, ptr %7, align 8
  %68 = call ptr @g_byte_array_free(ptr noundef %67, i32 noundef 1)
  store i1 false, ptr %3, align 1
  store i32 1, ptr %8, align 4
  br label %118

69:                                               ; preds = %56
  %70 = load ptr, ptr %7, align 8
  %71 = getelementptr inbounds nuw %struct._GByteArray, ptr %70, i32 0, i32 1
  %72 = load i32, ptr %71, align 8
  %73 = icmp ugt i32 %72, 64
  br i1 %73, label %74, label %79

74:                                               ; preds = %69
  %75 = call noalias ptr (ptr, ptr, ...) @wmem_strdup_printf(ptr noundef null, ptr noundef @.str.152, i32 noundef 64)
  %76 = load ptr, ptr %5, align 8
  store ptr %75, ptr %76, align 8
  %77 = load ptr, ptr %7, align 8
  %78 = call ptr @g_byte_array_free(ptr noundef %77, i32 noundef 1)
  store i1 false, ptr %3, align 1
  store i32 1, ptr %8, align 4
  br label %118

79:                                               ; preds = %69
  %80 = load ptr, ptr %6, align 8
  %81 = getelementptr inbounds nuw %struct.oscore_context, ptr %80, i32 0, i32 0
  %82 = load ptr, ptr %81, align 8
  %83 = load ptr, ptr %7, align 8
  %84 = call zeroext i1 @hex_str_to_bytes(ptr noundef %82, ptr noundef %83, i1 noundef zeroext false)
  %85 = zext i1 %84 to i32
  %86 = icmp eq i32 %85, 0
  br i1 %86, label %87, label %92

87:                                               ; preds = %79
  %88 = call noalias ptr @g_strdup(ptr noundef @.str.155)
  %89 = load ptr, ptr %5, align 8
  store ptr %88, ptr %89, align 8
  %90 = load ptr, ptr %7, align 8
  %91 = call ptr @g_byte_array_free(ptr noundef %90, i32 noundef 1)
  store i1 false, ptr %3, align 1
  store i32 1, ptr %8, align 4
  br label %118

92:                                               ; preds = %79
  %93 = load ptr, ptr %7, align 8
  %94 = getelementptr inbounds nuw %struct._GByteArray, ptr %93, i32 0, i32 1
  %95 = load i32, ptr %94, align 8
  %96 = icmp eq i32 %95, 0
  br i1 %96, label %97, label %102

97:                                               ; preds = %92
  %98 = call noalias ptr @g_strdup(ptr noundef @.str.156)
  %99 = load ptr, ptr %5, align 8
  store ptr %98, ptr %99, align 8
  %100 = load ptr, ptr %7, align 8
  %101 = call ptr @g_byte_array_free(ptr noundef %100, i32 noundef 1)
  store i1 false, ptr %3, align 1
  store i32 1, ptr %8, align 4
  br label %118

102:                                              ; preds = %92
  %103 = load ptr, ptr %6, align 8
  %104 = getelementptr inbounds nuw %struct.oscore_context, ptr %103, i32 0, i32 1
  %105 = load ptr, ptr %104, align 8
  %106 = load ptr, ptr %7, align 8
  %107 = call zeroext i1 @hex_str_to_bytes(ptr noundef %105, ptr noundef %106, i1 noundef zeroext false)
  %108 = zext i1 %107 to i32
  %109 = icmp eq i32 %108, 0
  br i1 %109, label %110, label %115

110:                                              ; preds = %102
  %111 = call noalias ptr @g_strdup(ptr noundef @.str.157)
  %112 = load ptr, ptr %5, align 8
  store ptr %111, ptr %112, align 8
  %113 = load ptr, ptr %7, align 8
  %114 = call ptr @g_byte_array_free(ptr noundef %113, i32 noundef 1)
  store i1 false, ptr %3, align 1
  store i32 1, ptr %8, align 4
  br label %118

115:                                              ; preds = %102
  %116 = load ptr, ptr %7, align 8
  %117 = call ptr @g_byte_array_free(ptr noundef %116, i32 noundef 1)
  store i1 true, ptr %3, align 1
  store i32 1, ptr %8, align 4
  br label %118

118:                                              ; preds = %115, %110, %97, %87, %74, %64, %51, %41, %28, %18
  call void @llvm.lifetime.end.p0(i64 8, ptr %7) #12
  call void @llvm.lifetime.end.p0(i64 8, ptr %6) #12
  %119 = load i1, ptr %3, align 1
  ret i1 %119
}