; Function Attrs: null_pointer_is_valid sspstrong uwtable
define internal noundef zeroext i1 @oscore_context_update_cb(ptr noundef readonly captures(none) %0, ptr noundef writeonly captures(none) %1) #0 {
  %3 = tail call ptr @g_byte_array_new()
  %4 = getelementptr inbounds nuw i8, ptr %0, i64 24
  %5 = load ptr, ptr %4, align 8
  %6 = tail call zeroext i1 @hex_str_to_bytes(ptr noundef %5, ptr noundef %3, i1 noundef zeroext false)
  br i1 %6, label %9, label %7

7:                                                ; preds = %2
  %8 = tail call noalias ptr @g_strdup(ptr noundef nonnull @.str.151)
  br label %.sink.split

9:                                                ; preds = %2
  %10 = getelementptr inbounds nuw i8, ptr %3, i64 8
  %11 = load i32, ptr %10, align 8
  %12 = icmp ugt i32 %11, 7
  br i1 %12, label %13, label %15

13:                                               ; preds = %9
  %14 = tail call noalias ptr (ptr, ptr, ...) @wmem_strdup_printf(ptr noundef null, ptr noundef nonnull @.str.152, i32 noundef 7)
  br label %.sink.split

15:                                               ; preds = %9
  %16 = getelementptr inbounds nuw i8, ptr %0, i64 32
  %17 = load ptr, ptr %16, align 8
  %18 = tail call zeroext i1 @hex_str_to_bytes(ptr noundef %17, ptr noundef %3, i1 noundef zeroext false)
  br i1 %18, label %21, label %19

19:                                               ; preds = %15
  %20 = tail call noalias ptr @g_strdup(ptr noundef nonnull @.str.153)
  br label %.sink.split

21:                                               ; preds = %15
  %22 = load i32, ptr %10, align 8
  %23 = icmp ugt i32 %22, 7
  br i1 %23, label %24, label %26

24:                                               ; preds = %21
  %25 = tail call noalias ptr (ptr, ptr, ...) @wmem_strdup_printf(ptr noundef null, ptr noundef nonnull @.str.152, i32 noundef 7)
  br label %.sink.split

26:                                               ; preds = %21
  %27 = getelementptr inbounds nuw i8, ptr %0, i64 16
  %28 = load ptr, ptr %27, align 8
  %29 = tail call zeroext i1 @hex_str_to_bytes(ptr noundef %28, ptr noundef %3, i1 noundef zeroext false)
  br i1 %29, label %32, label %30

30:                                               ; preds = %26
  %31 = tail call noalias ptr @g_strdup(ptr noundef nonnull @.str.154)
  br label %.sink.split

32:                                               ; preds = %26
  %33 = load i32, ptr %10, align 8
  %34 = icmp ugt i32 %33, 64
  br i1 %34, label %35, label %37

35:                                               ; preds = %32
  %36 = tail call noalias ptr (ptr, ptr, ...) @wmem_strdup_printf(ptr noundef null, ptr noundef nonnull @.str.152, i32 noundef 64)
  br label %.sink.split

37:                                               ; preds = %32
  %38 = load ptr, ptr %0, align 8
  %39 = tail call zeroext i1 @hex_str_to_bytes(ptr noundef %38, ptr noundef %3, i1 noundef zeroext false)
  br i1 %39, label %42, label %40

40:                                               ; preds = %37
  %41 = tail call noalias ptr @g_strdup(ptr noundef nonnull @.str.155)
  br label %.sink.split

42:                                               ; preds = %37
  %43 = load i32, ptr %10, align 8
  %44 = icmp eq i32 %43, 0
  br i1 %44, label %45, label %47

45:                                               ; preds = %42
  %46 = tail call noalias ptr @g_strdup(ptr noundef nonnull @.str.156)
  br label %.sink.split

47:                                               ; preds = %42
  %48 = getelementptr inbounds nuw i8, ptr %0, i64 8
  %49 = load ptr, ptr %48, align 8
  %50 = tail call zeroext i1 @hex_str_to_bytes(ptr noundef %49, ptr noundef %3, i1 noundef zeroext false)
  br i1 %50, label %53, label %51

51:                                               ; preds = %47
  %52 = tail call noalias ptr @g_strdup(ptr noundef nonnull @.str.157)
  br label %.sink.split

.sink.split:                                      ; preds = %7, %13, %19, %24, %30, %35, %40, %45, %51
  %.sink = phi ptr [ %52, %51 ], [ %46, %45 ], [ %41, %40 ], [ %36, %35 ], [ %31, %30 ], [ %25, %24 ], [ %20, %19 ], [ %14, %13 ], [ %8, %7 ]
  store ptr %.sink, ptr %1, align 8
  br label %53

53:                                               ; preds = %.sink.split, %47
  %.0 = phi i1 [ true, %47 ], [ false, %.sink.split ]
  %54 = tail call ptr @g_byte_array_free(ptr noundef %3, i32 noundef 1)
  ret i1 %.0
}